target datalayout = "e-m:e-p270:32:32-p271:32:32-p272:64:64-i64:64-i128:128-f80:128-n8:16:32:64-S128"
target triple = "x86_64-pc-linux-gnu"

@.str.42 = private unnamed_addr constant [46 x i8] c"Real-Time Publish-Subscribe Virtual Transport\00", align 1
@.str.43 = private unnamed_addr constant [8 x i8] c"RTPS-VT\00", align 1
@.str.44 = private unnamed_addr constant [7 x i8] c"rtpsvt\00", align 1
@proto_rtpsvt = internal global i32 0, align 4
@rtpsvt_hf = internal global ptr null, align 8

; Function Attrs: null_pointer_is_valid sspstrong uwtable
define hidden void @proto_register_rtps_virtual_transport() #0 {
  %1 = alloca ptr, align 8
  call void @llvm.lifetime.start.p0(i64 8, ptr %1) #5
  %2 = call i32 @proto_register_protocol(ptr noundef @.str.42, ptr noundef @.str.43, ptr noundef @.str.44)
  store i32 %2, ptr @proto_rtpsvt, align 4
  %3 = load i32, ptr @proto_rtpsvt, align 4
  %4 = call ptr @proto_registrar_get_nth(i32 noundef %3)
  store ptr %4, ptr @rtpsvt_hf, align 8
  %5 = load i32, ptr @proto_rtpsvt, align 4
  call void @proto_register_field_array(i32 noundef %5, ptr noundef @proto_register_rtps_virtual_transport.hf, i32 noundef 20)
  call void @proto_register_subtree_array(ptr noundef @proto_register_rtps_virtual_transport.ett, i32 noundef 12)
  %6 = load i32, ptr @proto_rtpsvt, align 4
  %7 = call ptr @expert_register_protocol(i32 noundef %6)
  store ptr %7, ptr %1, align 8
  %8 = load ptr, ptr %1, align 8
  call void @expert_register_field_array(ptr noundef %8, ptr noundef @proto_register_rtps_virtual_transport.ei, i32 noundef 1)
  %9 = load i32, ptr @proto_rtpsvt, align 4
  %10 = call ptr @register_dissector(ptr noundef @.str.44, ptr noundef @dissect_rtps_virtual_transport, i32 noundef %9)
  call void @llvm.lifetime.end.p0(i64 8, ptr %1) #5
  ret void
}