; Function Attrs: null_pointer_is_valid sspstrong uwtable
define hidden void @proto_register_rtps_virtual_transport() local_unnamed_addr #0 {
  %1 = tail call i32 @proto_register_protocol(ptr noundef nonnull @.str.42, ptr noundef nonnull @.str.43, ptr noundef nonnull @.str.44)
  store i32 %1, ptr @proto_rtpsvt, align 4
  %2 = tail call ptr @proto_registrar_get_nth(i32 noundef %1)
  store ptr %2, ptr @rtpsvt_hf, align 8
  %3 = load i32, ptr @proto_rtpsvt, align 4
  tail call void @proto_register_field_array(i32 noundef %3, ptr noundef nonnull @proto_register_rtps_virtual_transport.hf, i32 noundef 20)
  tail call void @proto_register_subtree_array(ptr noundef nonnull @proto_register_rtps_virtual_transport.ett, i32 noundef 12)
  %4 = load i32, ptr @proto_rtpsvt, align 4
  %5 = tail call ptr @expert_register_protocol(i32 noundef %4)
  tail call void @expert_register_field_array(ptr noundef %5, ptr noundef nonnull @proto_register_rtps_virtual_transport.ei, i32 noundef 1)
  %6 = load i32, ptr @proto_rtpsvt, align 4
  %7 = tail call ptr @register_dissector(ptr noundef nonnull @.str.44, ptr noundef nonnull @dissect_rtps_virtual_transport, i32 noundef %6)
  ret void
}